; Function Attrs: mustprogress uwtable
define internal fastcc void @_ZN3nixL20printUnquotedStringsISt23_Rb_tree_const_iteratorINSt7__cxx1112basic_stringIcSt11char_traitsIcESaIcEEEEEEvRS7_T_SA_(ptr noundef nonnull align 8 dereferenceable(32) %0, ptr readonly %1, ptr readnone %2) unnamed_addr #4 personality ptr @__gxx_personality_v0 {
  %4 = getelementptr inbounds i8, ptr %0, i64 8
  %5 = load i64, ptr %4, align 8
  %6 = add i64 %5, 1
  %7 = load ptr, ptr %0, align 8
  %8 = getelementptr inbounds i8, ptr %0, i64 16
  %9 = icmp eq ptr %7, %8
  br i1 %9, label %10, label %_ZNKSt7__cxx1112basic_stringIcSt11char_traitsIcESaIcEE8capacityEv.exit.i.i

10:                                               ; preds = %3
  %11 = icmp ult i64 %5, 16
  tail call void @llvm.assume(i1 %11)
  br label %_ZNKSt7__cxx1112basic_stringIcSt11char_traitsIcESaIcEE8capacityEv.exit.i.i

_ZNKSt7__cxx1112basic_stringIcSt11char_traitsIcESaIcEE8capacityEv.exit.i.i: ; preds = %10, %3
  %12 = load i64, ptr %8, align 8
  %13 = select i1 %9, i64 15, i64 %12
  %14 = icmp ugt i64 %6, %13
  br i1 %14, label %15, label %_ZNSt7__cxx1112basic_stringIcSt11char_traitsIcESaIcEEpLEc.exit

15:                                               ; preds = %_ZNKSt7__cxx1112basic_stringIcSt11char_traitsIcESaIcEE8capacityEv.exit.i.i
  tail call void @_ZNSt7__cxx1112basic_stringIcSt11char_traitsIcESaIcEE9_M_mutateEmmPKcm(ptr noundef nonnull align 8 dereferenceable(32) %0, i64 noundef %5, i64 noundef 0, ptr noundef null, i64 noundef 1)
  %.pre.i.i = load ptr, ptr %0, align 8
  br label %_ZNSt7__cxx1112basic_stringIcSt11char_traitsIcESaIcEEpLEc.exit

_ZNSt7__cxx1112basic_stringIcSt11char_traitsIcESaIcEEpLEc.exit: ; preds = %_ZNKSt7__cxx1112basic_stringIcSt11char_traitsIcESaIcEE8capacityEv.exit.i.i, %15
  %16 = phi ptr [ %.pre.i.i, %15 ], [ %7, %_ZNKSt7__cxx1112basic_stringIcSt11char_traitsIcESaIcEE8capacityEv.exit.i.i ]
  %17 = getelementptr inbounds i8, ptr %16, i64 %5
  store i8 91, ptr %17, align 1
  store i64 %6, ptr %4, align 8
  %18 = load ptr, ptr %0, align 8
  %19 = getelementptr inbounds i8, ptr %18, i64 %6
  store i8 0, ptr %19, align 1
  %20 = icmp eq ptr %1, %2
  br i1 %20, label %._crit_edge, label %.lr.ph

.lr.ph:                                           ; preds = %_ZNSt7__cxx1112basic_stringIcSt11char_traitsIcESaIcEEpLEc.exit, %37
  %.014 = phi i8 [ %.1, %37 ], [ 1, %_ZNSt7__cxx1112basic_stringIcSt11char_traitsIcESaIcEEpLEc.exit ]
  %.sroa.010.013 = phi ptr [ %42, %37 ], [ %1, %_ZNSt7__cxx1112basic_stringIcSt11char_traitsIcESaIcEEpLEc.exit ]
  %21 = and i8 %.014, 1
  %.not = icmp eq i8 %21, 0
  br i1 %.not, label %22, label %37

22:                                               ; preds = %.lr.ph
  %23 = load i64, ptr %4, align 8
  %24 = add i64 %23, 1
  %25 = load ptr, ptr %0, align 8
  %26 = icmp eq ptr %25, %8
  br i1 %26, label %27, label %_ZNKSt7__cxx1112basic_stringIcSt11char_traitsIcESaIcEE8capacityEv.exit.i.i4

27:                                               ; preds = %22
  %28 = icmp ult i64 %23, 16
  tail call void @llvm.assume(i1 %28)
  br label %_ZNKSt7__cxx1112basic_stringIcSt11char_traitsIcESaIcEE8capacityEv.exit.i.i4

_ZNKSt7__cxx1112basic_stringIcSt11char_traitsIcESaIcEE8capacityEv.exit.i.i4: ; preds = %27, %22
  %29 = load i64, ptr %8, align 8
  %30 = select i1 %26, i64 15, i64 %29
  %31 = icmp ugt i64 %24, %30
  br i1 %31, label %32, label %_ZNSt7__cxx1112basic_stringIcSt11char_traitsIcESaIcEEpLEc.exit6

32:                                               ; preds = %_ZNKSt7__cxx1112basic_stringIcSt11char_traitsIcESaIcEE8capacityEv.exit.i.i4
  tail call void @_ZNSt7__cxx1112basic_stringIcSt11char_traitsIcESaIcEE9_M_mutateEmmPKcm(ptr noundef nonnull align 8 dereferenceable(32) %0, i64 noundef %23, i64 noundef 0, ptr noundef null, i64 noundef 1)
  %.pre.i.i5 = load ptr, ptr %0, align 8
  br label %_ZNSt7__cxx1112basic_stringIcSt11char_traitsIcESaIcEEpLEc.exit6

_ZNSt7__cxx1112basic_stringIcSt11char_traitsIcESaIcEEpLEc.exit6: ; preds = %_ZNKSt7__cxx1112basic_stringIcSt11char_traitsIcESaIcEE8capacityEv.exit.i.i4, %32
  %33 = phi ptr [ %.pre.i.i5, %32 ], [ %25, %_ZNKSt7__cxx1112basic_stringIcSt11char_traitsIcESaIcEE8capacityEv.exit.i.i4 ]
  %34 = getelementptr inbounds i8, ptr %33, i64 %23
  store i8 44, ptr %34, align 1
  store i64 %24, ptr %4, align 8
  %35 = load ptr, ptr %0, align 8
  %36 = getelementptr inbounds i8, ptr %35, i64 %24
  store i8 0, ptr %36, align 1
  br label %37

37:                                               ; preds = %.lr.ph, %_ZNSt7__cxx1112basic_stringIcSt11char_traitsIcESaIcEEpLEc.exit6
  %.1 = phi i8 [ %.014, %_ZNSt7__cxx1112basic_stringIcSt11char_traitsIcESaIcEEpLEc.exit6 ], [ 0, %.lr.ph ]
  %38 = getelementptr inbounds i8, ptr %.sroa.010.013, i64 32
  %39 = load ptr, ptr %38, align 8
  %40 = getelementptr inbounds i8, ptr %.sroa.010.013, i64 40
  %41 = load i64, ptr %40, align 8
  tail call fastcc void @_ZN3nixL19printUnquotedStringERNSt7__cxx1112basic_stringIcSt11char_traitsIcESaIcEEESt17basic_string_viewIcS3_E(ptr noundef nonnull align 8 dereferenceable(32) %0, i64 %41, ptr %39)
  %42 = tail call noundef ptr @_ZSt18_Rb_tree_incrementPKSt18_Rb_tree_node_base(ptr noundef %.sroa.010.013) #30
  %43 = icmp eq ptr %42, %2
  br i1 %43, label %._crit_edge, label %.lr.ph, !llvm.loop !98

._crit_edge:                                      ; preds = %37, %_ZNSt7__cxx1112basic_stringIcSt11char_traitsIcESaIcEEpLEc.exit
  %44 = load i64, ptr %4, align 8
  %45 = add i64 %44, 1
  %46 = load ptr, ptr %0, align 8
  %47 = icmp eq ptr %46, %8
  br i1 %47, label %48, label %_ZNKSt7__cxx1112basic_stringIcSt11char_traitsIcESaIcEE8capacityEv.exit.i.i7

48:                                               ; preds = %._crit_edge
  %49 = icmp ult i64 %44, 16
  tail call void @llvm.assume(i1 %49)
  br label %_ZNKSt7__cxx1112basic_stringIcSt11char_traitsIcESaIcEE8capacityEv.exit.i.i7

_ZNKSt7__cxx1112basic_stringIcSt11char_traitsIcESaIcEE8capacityEv.exit.i.i7: ; preds = %48, %._crit_edge
  %50 = load i64, ptr %8, align 8
  %51 = select i1 %47, i64 15, i64 %50
  %52 = icmp ugt i64 %45, %51
  br i1 %52, label %53, label %_ZNSt7__cxx1112basic_stringIcSt11char_traitsIcESaIcEEpLEc.exit9

53:                                               ; preds = %_ZNKSt7__cxx1112basic_stringIcSt11char_traitsIcESaIcEE8capacityEv.exit.i.i7
  tail call void @_ZNSt7__cxx1112basic_stringIcSt11char_traitsIcESaIcEE9_M_mutateEmmPKcm(ptr noundef nonnull align 8 dereferenceable(32) %0, i64 noundef %44, i64 noundef 0, ptr noundef null, i64 noundef 1)
  %.pre.i.i8 = load ptr, ptr %0, align 8
  br label %_ZNSt7__cxx1112basic_stringIcSt11char_traitsIcESaIcEEpLEc.exit9

_ZNSt7__cxx1112basic_stringIcSt11char_traitsIcESaIcEEpLEc.exit9: ; preds = %_ZNKSt7__cxx1112basic_stringIcSt11char_traitsIcESaIcEE8capacityEv.exit.i.i7, %53
  %54 = phi ptr [ %.pre.i.i8, %53 ], [ %46, %_ZNKSt7__cxx1112basic_stringIcSt11char_traitsIcESaIcEE8capacityEv.exit.i.i7 ]
  %55 = getelementptr inbounds i8, ptr %54, i64 %44
  store i8 93, ptr %55, align 1
  store i64 %45, ptr %4, align 8
  %56 = load ptr, ptr %0, align 8
  %57 = getelementptr inbounds i8, ptr %56, i64 %45
  store i8 0, ptr %57, align 1
  ret void
}